target datalayout = "e-m:e-p270:32:32-p271:32:32-p272:64:64-i64:64-i128:128-f80:128-n8:16:32:64-S128"
target triple = "x86_64-pc-linux-gnu"

%struct.config_bool = type { %struct.config_generic, ptr, i8, ptr, ptr, ptr, i8, ptr }
%struct.config_generic = type { ptr, i32, i32, ptr, ptr, i32, i32, i32, i32, i32, i32, i32, i32, i32, ptr, ptr, %struct.dlist_node, %struct.slist_node, %struct.slist_node, ptr, ptr, i32 }
%struct.dlist_node = type { ptr, ptr }
%struct.slist_node = type { ptr }
%struct.config_int = type { %struct.config_generic, ptr, i32, i32, i32, ptr, ptr, ptr, i32, ptr }
%struct.config_real = type { %struct.config_generic, ptr, double, double, double, ptr, ptr, ptr, double, ptr }
%struct.config_string = type { %struct.config_generic, ptr, ptr, ptr, ptr, ptr, ptr, ptr }
%struct.config_enum = type { %struct.config_generic, ptr, i32, ptr, ptr, ptr, ptr, i32, ptr }
%struct.guc_stack = type { ptr, i32, i32, i32, i32, i32, i32, i32, %struct.config_var_value, %struct.config_var_value }
%struct.config_var_value = type { %union.config_var_val, ptr }
%union.config_var_val = type { double }

; Function Attrs: nounwind uwtable
define dso_local void @guc_free(ptr noundef %0) #0 {
  %2 = alloca ptr, align 8
  store ptr %0, ptr %2, align 8
  %3 = load ptr, ptr %2, align 8
  %4 = icmp ne ptr %3, null
  br i1 %4, label %5, label %7

5:                                                ; preds = %1
  %6 = load ptr, ptr %2, align 8
  call void @pfree(ptr noundef %6)
  br label %7

7:                                                ; preds = %5, %1
  ret void
}

; Function Attrs: nounwind uwtable
define internal zeroext i1 @extra_field_used(ptr noundef %0, ptr noundef %1) #0 {
  %3 = alloca i1, align 1
  %4 = alloca ptr, align 8
  %5 = alloca ptr, align 8
  %6 = alloca ptr, align 8
  %7 = alloca i32, align 4
  store ptr %0, ptr %4, align 8
  store ptr %1, ptr %5, align 8
  call void @llvm.lifetime.start.p0(i64 8, ptr %6) #16
  %8 = load ptr, ptr %5, align 8
  %9 = load ptr, ptr %4, align 8
  %10 = getelementptr inbounds nuw %struct.config_generic, ptr %9, i32 0, i32 15
  %11 = load ptr, ptr %10, align 8
  %12 = icmp eq ptr %8, %11
  br i1 %12, label %13, label %14

13:                                               ; preds = %2
  store i1 true, ptr %3, align 1
  store i32 1, ptr %7, align 4
  br label %86

14:                                               ; preds = %2
  %15 = load ptr, ptr %4, align 8
  %16 = getelementptr inbounds nuw %struct.config_generic, ptr %15, i32 0, i32 6
  %17 = load i32, ptr %16, align 4
  switch i32 %17, label %58 [
    i32 0, label %18
    i32 1, label %26
    i32 2, label %34
    i32 3, label %42
    i32 4, label %50
  ]

18:                                               ; preds = %14
  %19 = load ptr, ptr %5, align 8
  %20 = load ptr, ptr %4, align 8
  %21 = getelementptr inbounds nuw %struct.config_bool, ptr %20, i32 0, i32 7
  %22 = load ptr, ptr %21, align 8
  %23 = icmp eq ptr %19, %22
  br i1 %23, label %24, label %25

24:                                               ; preds = %18
  store i1 true, ptr %3, align 1
  store i32 1, ptr %7, align 4
  br label %86

25:                                               ; preds = %18
  br label %58

26:                                               ; preds = %14
  %27 = load ptr, ptr %5, align 8
  %28 = load ptr, ptr %4, align 8
  %29 = getelementptr inbounds nuw %struct.config_int, ptr %28, i32 0, i32 9
  %30 = load ptr, ptr %29, align 8
  %31 = icmp eq ptr %27, %30
  br i1 %31, label %32, label %33

32:                                               ; preds = %26
  store i1 true, ptr %3, align 1
  store i32 1, ptr %7, align 4
  br label %86

33:                                               ; preds = %26
  br label %58

34:                                               ; preds = %14
  %35 = load ptr, ptr %5, align 8
  %36 = load ptr, ptr %4, align 8
  %37 = getelementptr inbounds nuw %struct.config_real, ptr %36, i32 0, i32 9
  %38 = load ptr, ptr %37, align 8
  %39 = icmp eq ptr %35, %38
  br i1 %39, label %40, label %41

40:                                               ; preds = %34
  store i1 true, ptr %3, align 1
  store i32 1, ptr %7, align 4
  br label %86

41:                                               ; preds = %34
  br label %58

42:                                               ; preds = %14
  %43 = load ptr, ptr %5, align 8
  %44 = load ptr, ptr %4, align 8
  %45 = getelementptr inbounds nuw %struct.config_string, ptr %44, i32 0, i32 7
  %46 = load ptr, ptr %45, align 8
  %47 = icmp eq ptr %43, %46
  br i1 %47, label %48, label %49

48:                                               ; preds = %42
  store i1 true, ptr %3, align 1
  store i32 1, ptr %7, align 4
  br label %86

49:                                               ; preds = %42
  br label %58

50:                                               ; preds = %14
  %51 = load ptr, ptr %5, align 8
  %52 = load ptr, ptr %4, align 8
  %53 = getelementptr inbounds nuw %struct.config_enum, ptr %52, i32 0, i32 8
  %54 = load ptr, ptr %53, align 8
  %55 = icmp eq ptr %51, %54
  br i1 %55, label %56, label %57

56:                                               ; preds = %50
  store i1 true, ptr %3, align 1
  store i32 1, ptr %7, align 4
  br label %86

57:                                               ; preds = %50
  br label %58

58:                                               ; preds = %14, %57, %49, %41, %33, %25
  %59 = load ptr, ptr %4, align 8
  %60 = getelementptr inbounds nuw %struct.config_generic, ptr %59, i32 0, i32 14
  %61 = load ptr, ptr %60, align 8
  store ptr %61, ptr %6, align 8
  br label %62

62:                                               ; preds = %81, %58
  %63 = load ptr, ptr %6, align 8
  %64 = icmp ne ptr %63, null
  br i1 %64, label %65, label %85

65:                                               ; preds = %62
  %66 = load ptr, ptr %5, align 8
  %67 = load ptr, ptr %6, align 8
  %68 = getelementptr inbounds nuw %struct.guc_stack, ptr %67, i32 0, i32 8
  %69 = getelementptr inbounds nuw %struct.config_var_value, ptr %68, i32 0, i32 1
  %70 = load ptr, ptr %69, align 8
  %71 = icmp eq ptr %66, %70
  br i1 %71, label %79, label %72

72:                                               ; preds = %65
  %73 = load ptr, ptr %5, align 8
  %74 = load ptr, ptr %6, align 8
  %75 = getelementptr inbounds nuw %struct.guc_stack, ptr %74, i32 0, i32 9
  %76 = getelementptr inbounds nuw %struct.config_var_value, ptr %75, i32 0, i32 1
  %77 = load ptr, ptr %76, align 8
  %78 = icmp eq ptr %73, %77
  br i1 %78, label %79, label %80

79:                                               ; preds = %72, %65
  store i1 true, ptr %3, align 1
  store i32 1, ptr %7, align 4
  br label %86

80:                                               ; preds = %72
  br label %81

81:                                               ; preds = %80
  %82 = load ptr, ptr %6, align 8
  %83 = getelementptr inbounds nuw %struct.guc_stack, ptr %82, i32 0, i32 0
  %84 = load ptr, ptr %83, align 8
  store ptr %84, ptr %6, align 8
  br label %62, !llvm.loop !51

85:                                               ; preds = %62
  store i1 false, ptr %3, align 1
  store i32 1, ptr %7, align 4
  br label %86

86:                                               ; preds = %85, %79, %56, %48, %40, %32, %24, %13
  call void @llvm.lifetime.end.p0(i64 8, ptr %6) #16
  %87 = load i1, ptr %3, align 1
  ret i1 %87
}

; Function Attrs: nounwind uwtable
define internal void @set_extra_field(ptr noundef %0, ptr noundef %1, ptr noundef %2) #0 {
  %4 = alloca ptr, align 8
  %5 = alloca ptr, align 8
  %6 = alloca ptr, align 8
  %7 = alloca ptr, align 8
  store ptr %0, ptr %4, align 8
  store ptr %1, ptr %5, align 8
  store ptr %2, ptr %6, align 8
  call void @llvm.lifetime.start.p0(i64 8, ptr %7) #16
  %8 = load ptr, ptr %5, align 8
  %9 = load ptr, ptr %8, align 8
  store ptr %9, ptr %7, align 8
  %10 = load ptr, ptr %6, align 8
  %11 = load ptr, ptr %5, align 8
  store ptr %10, ptr %11, align 8
  %12 = load ptr, ptr %7, align 8
  %13 = icmp ne ptr %12, null
  br i1 %13, label %14, label %20

14:                                               ; preds = %3
  %15 = load ptr, ptr %4, align 8
  %16 = load ptr, ptr %7, align 8
  %17 = call zeroext i1 @extra_field_used(ptr noundef %15, ptr noundef %16)
  br i1 %17, label %20, label %18

18:                                               ; preds = %14
  %19 = load ptr, ptr %7, align 8
  call void @guc_free(ptr noundef %19)
  br label %20

20:                                               ; preds = %18, %14, %3
  call void @llvm.lifetime.end.p0(i64 8, ptr %7) #16
  ret void
}