; Function Attrs: nounwind uwtable
define internal fastcc void @set_extra_field(ptr noundef readonly captures(none) %0, ptr noundef captures(none) %1, ptr noundef %2) unnamed_addr #0 {
  %4 = load ptr, ptr %1, align 8
  store ptr %2, ptr %1, align 8
  %.not = icmp eq ptr %4, null
  br i1 %.not, label %extra_field_used.exit.thread, label %5

5:                                                ; preds = %3
  %6 = getelementptr inbounds nuw i8, ptr %0, i64 80
  %7 = load ptr, ptr %6, align 8
  %8 = icmp eq ptr %4, %7
  br i1 %8, label %extra_field_used.exit.thread, label %9

9:                                                ; preds = %5
  %10 = getelementptr inbounds nuw i8, ptr %0, i64 36
  %11 = load i32, ptr %10, align 4
  switch i32 %11, label %32 [
    i32 0, label %12
    i32 1, label %16
    i32 2, label %20
    i32 3, label %24
    i32 4, label %28
  ]

12:                                               ; preds = %9
  %13 = getelementptr inbounds nuw i8, ptr %0, i64 192
  %14 = load ptr, ptr %13, align 8
  %15 = icmp eq ptr %4, %14
  br i1 %15, label %extra_field_used.exit.thread, label %32

16:                                               ; preds = %9
  %17 = getelementptr inbounds nuw i8, ptr %0, i64 200
  %18 = load ptr, ptr %17, align 8
  %19 = icmp eq ptr %4, %18
  br i1 %19, label %extra_field_used.exit.thread, label %32

20:                                               ; preds = %9
  %21 = getelementptr inbounds nuw i8, ptr %0, i64 208
  %22 = load ptr, ptr %21, align 8
  %23 = icmp eq ptr %4, %22
  br i1 %23, label %extra_field_used.exit.thread, label %32

24:                                               ; preds = %9
  %25 = getelementptr inbounds nuw i8, ptr %0, i64 192
  %26 = load ptr, ptr %25, align 8
  %27 = icmp eq ptr %4, %26
  br i1 %27, label %extra_field_used.exit.thread, label %32

28:                                               ; preds = %9
  %29 = getelementptr inbounds nuw i8, ptr %0, i64 200
  %30 = load ptr, ptr %29, align 8
  %31 = icmp eq ptr %4, %30
  br i1 %31, label %extra_field_used.exit.thread, label %32

32:                                               ; preds = %28, %24, %20, %16, %12, %9
  %33 = getelementptr inbounds nuw i8, ptr %0, i64 72
  br label %34

34:                                               ; preds = %39, %32
  %.0.in.i = phi ptr [ %33, %32 ], [ %.0.i, %39 ]
  %.0.i = load ptr, ptr %.0.in.i, align 8
  %.not.not.i = icmp eq ptr %.0.i, null
  br i1 %.not.not.i, label %guc_free.exit, label %35

35:                                               ; preds = %34
  %36 = getelementptr inbounds nuw i8, ptr %.0.i, i64 48
  %37 = load ptr, ptr %36, align 8
  %38 = icmp eq ptr %4, %37
  br i1 %38, label %extra_field_used.exit.thread, label %39

39:                                               ; preds = %35
  %40 = getelementptr inbounds nuw i8, ptr %.0.i, i64 64
  %41 = load ptr, ptr %40, align 8
  %42 = icmp eq ptr %4, %41
  br i1 %42, label %extra_field_used.exit.thread, label %34, !llvm.loop !32

guc_free.exit:                                    ; preds = %34
  tail call void @pfree(ptr noundef nonnull %4) #29
  br label %extra_field_used.exit.thread

extra_field_used.exit.thread:                     ; preds = %39, %35, %28, %24, %20, %16, %12, %5, %guc_free.exit, %3
  ret void
}